; Function Attrs: uwtable
define void @_ZThn16_N3gmx17AnalysisDataProxy11pointsAddedERKNS_23AnalysisDataPointSetRefE(ptr noundef %0, ptr noundef nonnull align 8 dereferenceable(40) %1) unnamed_addr #4 align 2 {
  %3 = alloca %"class.gmx::AnalysisDataPointSetRef", align 8
  call void @llvm.lifetime.start.p0(i64 40, ptr nonnull %3)
  %4 = getelementptr inbounds i8, ptr %0, i64 16
  %5 = load i32, ptr %4, align 8
  %6 = getelementptr inbounds i8, ptr %0, i64 20
  %7 = load i32, ptr %6, align 4
  call void @_ZN3gmx23AnalysisDataPointSetRefC1ERKS0_ii(ptr noundef nonnull align 8 dereferenceable(40) %3, ptr noundef nonnull align 8 dereferenceable(40) %1, i32 noundef %5, i32 noundef %7)
  %8 = getelementptr inbounds i8, ptr %3, i64 24
  %9 = getelementptr inbounds i8, ptr %3, i64 32
  %.sroa.0.0.copyload.i.i.i.i = load ptr, ptr %8, align 8
  %10 = load ptr, ptr %9, align 8
  %11 = ptrtoint ptr %10 to i64
  %12 = ptrtoint ptr %.sroa.0.0.copyload.i.i.i.i to i64
  %13 = sub i64 %11, %12
  %14 = lshr exact i64 %13, 4
  %15 = trunc i64 %14 to i32
  %16 = icmp sgt i32 %15, 0
  br i1 %16, label %17, label %_ZN3gmx17AnalysisDataProxy11pointsAddedERKNS_23AnalysisDataPointSetRefE.exit

17:                                               ; preds = %2
  %18 = getelementptr inbounds i8, ptr %0, i64 -16
  %19 = getelementptr inbounds i8, ptr %0, i64 24
  %20 = load i8, ptr %19, align 8
  %21 = trunc i8 %20 to i1
  %22 = call noundef nonnull align 8 dereferenceable(8) ptr @_ZN3gmx20AbstractAnalysisData13moduleManagerEv(ptr noundef nonnull align 8 dereferenceable(16) %18)
  br i1 %21, label %23, label %24

23:                                               ; preds = %17
  call void @_ZNK3gmx25AnalysisDataModuleManager23notifyParallelPointsAddERKNS_23AnalysisDataPointSetRefE(ptr noundef nonnull align 8 dereferenceable(8) %22, ptr noundef nonnull align 8 dereferenceable(40) %3)
  br label %_ZN3gmx17AnalysisDataProxy11pointsAddedERKNS_23AnalysisDataPointSetRefE.exit

24:                                               ; preds = %17
  call void @_ZNK3gmx25AnalysisDataModuleManager15notifyPointsAddERKNS_23AnalysisDataPointSetRefE(ptr noundef nonnull align 8 dereferenceable(8) %22, ptr noundef nonnull align 8 dereferenceable(40) %3)
  br label %_ZN3gmx17AnalysisDataProxy11pointsAddedERKNS_23AnalysisDataPointSetRefE.exit

_ZN3gmx17AnalysisDataProxy11pointsAddedERKNS_23AnalysisDataPointSetRefE.exit: ; preds = %2, %23, %24
  call void @llvm.lifetime.end.p0(i64 40, ptr nonnull %3)
  ret void
}